target datalayout = "e-m:e-p270:32:32-p271:32:32-p272:64:64-i64:64-i128:128-f80:128-n8:16:32:64-S128"
target triple = "x86_64-pc-linux-gnu"

@save_argv = internal global ptr null, align 8
@ps_buffer = internal global ptr null, align 8

; Function Attrs: nounwind uwtable
define hidden i32 @is_ps_title_available() #0 {
  %1 = alloca i32, align 4
  %2 = load ptr, ptr @save_argv, align 8
  %3 = icmp ne ptr %2, null
  br i1 %3, label %5, label %4

4:                                                ; preds = %0
  store i32 2, ptr %1, align 4
  br label %10

5:                                                ; preds = %0
  %6 = load ptr, ptr @ps_buffer, align 8
  %7 = icmp ne ptr %6, null
  br i1 %7, label %9, label %8

8:                                                ; preds = %5
  store i32 3, ptr %1, align 4
  br label %10

9:                                                ; preds = %5
  store i32 0, ptr %1, align 4
  br label %10

10:                                               ; preds = %9, %8, %4
  %11 = load i32, ptr %1, align 4
  ret i32 %11
}