; Function Attrs: mustprogress nofree norecurse nosync nounwind willreturn memory(read, argmem: none, inaccessiblemem: none) uwtable
define hidden i32 @is_ps_title_available() local_unnamed_addr #6 {
  %1 = load ptr, ptr @save_argv, align 8
  %.not = icmp eq ptr %1, null
  %2 = load ptr, ptr @ps_buffer, align 8
  %.not1 = icmp eq ptr %2, null
  %. = select i1 %.not1, i32 3, i32 0
  %.0 = select i1 %.not, i32 2, i32 %.
  ret i32 %.0
}